; ModuleID = 'source-C-CXX/27/1861.c'
source_filename = "source-C-CXX/27/1861.c"
target datalayout = "e-m:e-p270:32:32-p271:32:32-p272:64:64-i64:64-f80:128-n8:16:32:64-S128"
target triple = "x86_64-pc-linux-gnu"

@.str = private unnamed_addr constant [4 x i8] c"%d,\00", align 1
@.str.1 = private unnamed_addr constant [3 x i8] c"%d\00", align 1

; Function Attrs: nounwind sspstrong uwtable
define dso_local i32 @main() local_unnamed_addr #0 {
  %1 = alloca [100000 x i8], align 16
  %2 = alloca [300 x i32], align 16
  %3 = getelementptr inbounds [100000 x i8], [100000 x i8]* %1, i64 0, i64 0
  call void @llvm.lifetime.start.p0i8(i64 100000, i8* nonnull %3) #5
  %4 = bitcast [300 x i32]* %2 to i8*
  call void @llvm.lifetime.start.p0i8(i64 1200, i8* nonnull %4) #5
  %5 = call i32 (i8*, ...) bitcast (i32 (...)* @gets to i32 (i8*, ...)*)(i8* nonnull %3) #5
  %6 = call i64 @strlen(i8* noundef nonnull %3) #6
  %7 = trunc i64 %6 to i32
  %8 = icmp sgt i32 %7, 0
  br i1 %8, label %9, label %49

9:                                                ; preds = %0
  %10 = and i64 %6, 4294967295
  br label %11

11:                                               ; preds = %9, %30
  %12 = phi i64 [ 0, %9 ], [ %34, %30 ]
  %13 = phi i32 [ undef, %9 ], [ %33, %30 ]
  %14 = phi i32 [ 0, %9 ], [ %32, %30 ]
  %15 = phi i32 [ 0, %9 ], [ %31, %30 ]
  %16 = getelementptr inbounds [100000 x i8], [100000 x i8]* %1, i64 0, i64 %12
  %17 = load i8, i8* %16, align 1, !tbaa !5
  %18 = icmp eq i8 %17, 32
  %19 = icmp eq i32 %13, 0
  %20 = select i1 %18, i1 %19, i1 false
  br i1 %20, label %21, label %25

21:                                               ; preds = %11
  %22 = sext i32 %14 to i64
  %23 = getelementptr inbounds [300 x i32], [300 x i32]* %2, i64 0, i64 %22
  store i32 %15, i32* %23, align 4, !tbaa !8
  %24 = add nsw i32 %14, 1
  br label %30

25:                                               ; preds = %11
  %26 = xor i1 %18, true
  %27 = zext i1 %26 to i32
  %28 = add nsw i32 %15, %27
  %29 = select i1 %18, i32 %13, i32 0
  br label %30

30:                                               ; preds = %25, %21
  %31 = phi i32 [ 0, %21 ], [ %28, %25 ]
  %32 = phi i32 [ %24, %21 ], [ %14, %25 ]
  %33 = phi i32 [ 1, %21 ], [ %29, %25 ]
  %34 = add nuw nsw i64 %12, 1
  %35 = icmp eq i64 %34, %10
  br i1 %35, label %36, label %11, !llvm.loop !10

36:                                               ; preds = %30
  %37 = sext i32 %32 to i64
  %38 = getelementptr inbounds [300 x i32], [300 x i32]* %2, i64 0, i64 %37
  store i32 %31, i32* %38, align 4, !tbaa !8
  %39 = icmp sgt i32 %32, 0
  br i1 %39, label %40, label %49

40:                                               ; preds = %36
  %41 = zext i32 %32 to i64
  br label %42

42:                                               ; preds = %40, %42
  %43 = phi i64 [ 0, %40 ], [ %47, %42 ]
  %44 = getelementptr inbounds [300 x i32], [300 x i32]* %2, i64 0, i64 %43
  %45 = load i32, i32* %44, align 4, !tbaa !8
  %46 = call i32 (i8*, ...) @printf(i8* nonnull dereferenceable(1) getelementptr inbounds ([4 x i8], [4 x i8]* @.str, i64 0, i64 0), i32 %45)
  %47 = add nuw nsw i64 %43, 1
  %48 = icmp eq i64 %47, %41
  br i1 %48, label %49, label %42, !llvm.loop !12

49:                                               ; preds = %42, %0, %36
  %50 = phi i32 [ %31, %36 ], [ 0, %0 ], [ %31, %42 ]
  %51 = call i32 (i8*, ...) @printf(i8* nonnull dereferenceable(1) getelementptr inbounds ([3 x i8], [3 x i8]* @.str.1, i64 0, i64 0), i32 %50)
  call void @llvm.lifetime.end.p0i8(i64 1200, i8* nonnull %4) #5
  call void @llvm.lifetime.end.p0i8(i64 100000, i8* nonnull %3) #5
  ret i32 0
}

; Function Attrs: argmemonly mustprogress nofree nosync nounwind willreturn
declare void @llvm.lifetime.start.p0i8(i64 immarg, i8* nocapture) #1

declare i32 @gets(...) local_unnamed_addr #2

; Function Attrs: argmemonly mustprogress nofree nounwind readonly willreturn
declare i64 @strlen(i8* nocapture) local_unnamed_addr #3

; Function Attrs: nofree nounwind
declare noundef i32 @printf(i8* nocapture noundef readonly, ...) local_unnamed_addr #4

; Function Attrs: argmemonly mustprogress nofree nosync nounwind willreturn
declare void @llvm.lifetime.end.p0i8(i64 immarg, i8* nocapture) #1


!llvm.module.flags = !{!0, !1, !2, !3}
!llvm.ident = !{!4}

!0 = !{i32 1, !"wchar_size", i32 4}
!1 = !{i32 7, !"PIC Level", i32 2}
!2 = !{i32 7, !"PIE Level", i32 2}
!3 = !{i32 7, !"uwtable", i32 1}
!4 = !{!"clang version 13.0.0"}
!5 = !{!6, !6, i64 0}
!6 = !{!"omnipotent char", !7, i64 0}
!7 = !{!"Simple C/C++ TBAA"}
!8 = !{!9, !9, i64 0}
!9 = !{!"int", !6, i64 0}
!10 = distinct !{!10, !11}
!11 = !{!"llvm.loop.mustprogress"}
!12 = distinct !{!12, !11}
